target datalayout = "e-m:e-p270:32:32-p271:32:32-p272:64:64-i64:64-i128:128-f80:128-n8:16:32:64-S128"
target triple = "x86_64-unknown-linux-gnu"

%"class.zmq::plain_client_t" = type <{ %"class.zmq::mechanism_base_t", i32, [4 x i8] }>
%"class.zmq::mechanism_base_t" = type { %"class.zmq::mechanism_t", ptr }
%"class.zmq::mechanism_t" = type { ptr, %"struct.zmq::options_t", %"class.std::map", %"class.std::map", %"struct.zmq::blob_t", %"struct.zmq::blob_t" }
%"struct.zmq::options_t" = type { i32, i32, i64, i8, [256 x i8], i32, i32, i32, i32, i32, i32, i32, i32, i8, %"struct.zmq::atomic_value_t", i32, i32, i32, i32, i32, i32, i64, i32, i32, i8, i32, i8, i8, i8, i8, i8, %"class.std::__cxx11::basic_string", %"class.std::__cxx11::basic_string", %"class.std::__cxx11::basic_string", i32, i32, i32, i32, %"class.std::vector", %"class.std::set", %"class.std::set", %"class.std::set.6", i32, i32, %"class.std::__cxx11::basic_string", %"class.std::__cxx11::basic_string", %"class.std::__cxx11::basic_string", [32 x i8], [32 x i8], [32 x i8], %"class.std::__cxx11::basic_string", %"class.std::__cxx11::basic_string", i32, i32, i8, i32, i8, i32, i8, i16, i32, i32, i32, %"class.std::__cxx11::basic_string", i8, i8, i8, i32, i32, i8, i32, %"class.std::map", i32, %"class.std::__cxx11::basic_string", %"class.std::__cxx11::basic_string", %"class.std::__cxx11::basic_string", %"class.std::__cxx11::basic_string", i8, %"class.std::vector.21", i8, %"class.std::vector.21", i8, %"class.std::vector.21", i8, i32, i8, i32, i32, i32, i32, i32, i8, i32 }
%"struct.zmq::atomic_value_t" = type { %"struct.std::atomic" }
%"struct.std::atomic" = type { %"struct.std::__atomic_base" }
%"struct.std::__atomic_base" = type { i32 }
%"class.std::vector" = type { %"struct.std::_Vector_base" }
%"struct.std::_Vector_base" = type { %"struct.std::_Vector_base<zmq::tcp_address_mask_t, std::allocator<zmq::tcp_address_mask_t>>::_Vector_impl" }
%"struct.std::_Vector_base<zmq::tcp_address_mask_t, std::allocator<zmq::tcp_address_mask_t>>::_Vector_impl" = type { %"struct.std::_Vector_base<zmq::tcp_address_mask_t, std::allocator<zmq::tcp_address_mask_t>>::_Vector_impl_data" }
%"struct.std::_Vector_base<zmq::tcp_address_mask_t, std::allocator<zmq::tcp_address_mask_t>>::_Vector_impl_data" = type { ptr, ptr, ptr }
%"class.std::set" = type { %"class.std::_Rb_tree" }
%"class.std::_Rb_tree" = type { %"struct.std::_Rb_tree<unsigned int, unsigned int, std::_Identity<unsigned int>, std::less<unsigned int>>::_Rb_tree_impl" }
%"struct.std::_Rb_tree<unsigned int, unsigned int, std::_Identity<unsigned int>, std::less<unsigned int>>::_Rb_tree_impl" = type { %"struct.std::_Rb_tree_key_compare", %"struct.std::_Rb_tree_header" }
%"struct.std::_Rb_tree_key_compare" = type { %"struct.std::less" }
%"struct.std::less" = type { i8 }
%"struct.std::_Rb_tree_header" = type { %"struct.std::_Rb_tree_node_base", i64 }
%"struct.std::_Rb_tree_node_base" = type { i32, ptr, ptr, ptr }
%"class.std::set.6" = type { %"class.std::_Rb_tree.7" }
%"class.std::_Rb_tree.7" = type { %"struct.std::_Rb_tree<int, int, std::_Identity<int>, std::less<int>>::_Rb_tree_impl" }
%"struct.std::_Rb_tree<int, int, std::_Identity<int>, std::less<int>>::_Rb_tree_impl" = type { %"struct.std::_Rb_tree_key_compare.11", %"struct.std::_Rb_tree_header" }
%"struct.std::_Rb_tree_key_compare.11" = type { %"struct.std::less.12" }
%"struct.std::less.12" = type { i8 }
%"class.std::__cxx11::basic_string" = type { %"struct.std::__cxx11::basic_string<char>::_Alloc_hider", i64, %union.anon }
%"struct.std::__cxx11::basic_string<char>::_Alloc_hider" = type { ptr }
%union.anon = type { i64, [8 x i8] }
%"class.std::vector.21" = type { %"struct.std::_Vector_base.22" }
%"struct.std::_Vector_base.22" = type { %"struct.std::_Vector_base<unsigned char, std::allocator<unsigned char>>::_Vector_impl" }
%"struct.std::_Vector_base<unsigned char, std::allocator<unsigned char>>::_Vector_impl" = type { %"struct.std::_Vector_base<unsigned char, std::allocator<unsigned char>>::_Vector_impl_data" }
%"struct.std::_Vector_base<unsigned char, std::allocator<unsigned char>>::_Vector_impl_data" = type { ptr, ptr, ptr }
%"class.std::map" = type { %"class.std::_Rb_tree.14" }
%"class.std::_Rb_tree.14" = type { %"struct.std::_Rb_tree<std::__cxx11::basic_string<char>, std::pair<const std::__cxx11::basic_string<char>, std::__cxx11::basic_string<char>>, std::_Select1st<std::pair<const std::__cxx11::basic_string<char>, std::__cxx11::basic_string<char>>>, std::less<std::__cxx11::basic_string<char>>>::_Rb_tree_impl" }
%"struct.std::_Rb_tree<std::__cxx11::basic_string<char>, std::pair<const std::__cxx11::basic_string<char>, std::__cxx11::basic_string<char>>, std::_Select1st<std::pair<const std::__cxx11::basic_string<char>, std::__cxx11::basic_string<char>>>, std::less<std::__cxx11::basic_string<char>>>::_Rb_tree_impl" = type { %"struct.std::_Rb_tree_key_compare.18", %"struct.std::_Rb_tree_header" }
%"struct.std::_Rb_tree_key_compare.18" = type { %"struct.std::less.19" }
%"struct.std::less.19" = type { i8 }
%"struct.zmq::blob_t" = type <{ ptr, i64, i8, [7 x i8] }>

; Function Attrs: mustprogress uwtable
define noundef i32 @_ZN3zmq14plain_client_t13process_errorEPKhm(ptr noundef nonnull align 8 dereferenceable(1504) %this, ptr noundef %cmd_data_, i64 noundef %data_size_) #0 align 2 {
entry:
  %retval = alloca i32, align 4
  %this.addr = alloca ptr, align 8
  %cmd_data_.addr = alloca ptr, align 8
  %data_size_.addr = alloca i64, align 8
  %start_of_error_reason = alloca i64, align 8
  %error_reason_len = alloca i64, align 8
  %error_reason = alloca ptr, align 8
  store ptr %this, ptr %this.addr, align 8
  store ptr %cmd_data_, ptr %cmd_data_.addr, align 8
  store i64 %data_size_, ptr %data_size_.addr, align 8
  %this1 = load ptr, ptr %this.addr, align 8
  %_state = getelementptr inbounds %"class.zmq::plain_client_t", ptr %this1, i32 0, i32 1
  %0 = load i32, ptr %_state, align 8
  %cmp = icmp ne i32 %0, 1
  br i1 %cmp, label %land.lhs.true, label %if.end

land.lhs.true:                                    ; preds = %entry
  %_state2 = getelementptr inbounds %"class.zmq::plain_client_t", ptr %this1, i32 0, i32 1
  %1 = load i32, ptr %_state2, align 8
  %cmp3 = icmp ne i32 %1, 3
  br i1 %cmp3, label %if.then, label %if.end

if.then:                                          ; preds = %land.lhs.true
  %session = getelementptr inbounds %"class.zmq::mechanism_base_t", ptr %this1, i32 0, i32 1
  %2 = load ptr, ptr %session, align 8
  %call = call noundef ptr @_ZNK3zmq14session_base_t10get_socketEv(ptr noundef nonnull align 8 dereferenceable(1624) %2)
  %session4 = getelementptr inbounds %"class.zmq::mechanism_base_t", ptr %this1, i32 0, i32 1
  %3 = load ptr, ptr %session4, align 8
  %call5 = call noundef nonnull align 8 dereferenceable(68) ptr @_ZNK3zmq14session_base_t12get_endpointEv(ptr noundef nonnull align 8 dereferenceable(1624) %3)
  call void @_ZN3zmq13socket_base_t31event_handshake_failed_protocolERKNS_19endpoint_uri_pair_tEi(ptr noundef nonnull align 8 dereferenceable(1825) %call, ptr noundef nonnull align 8 dereferenceable(68) %call5, i32 noundef 268435457)
  %call6 = call ptr @__errno_location() #10
  store i32 71, ptr %call6, align 4
  store i32 -1, ptr %retval, align 4
  br label %return

if.end:                                           ; preds = %land.lhs.true, %entry
  store i64 6, ptr %start_of_error_reason, align 8
  %4 = load i64, ptr %data_size_.addr, align 8
  %cmp7 = icmp ult i64 %4, 6
  br i1 %cmp7, label %if.then8, label %if.end14

if.then8:                                         ; preds = %if.end
  %session9 = getelementptr inbounds %"class.zmq::mechanism_base_t", ptr %this1, i32 0, i32 1
  %5 = load ptr, ptr %session9, align 8
  %call10 = call noundef ptr @_ZNK3zmq14session_base_t10get_socketEv(ptr noundef nonnull align 8 dereferenceable(1624) %5)
  %session11 = getelementptr inbounds %"class.zmq::mechanism_base_t", ptr %this1, i32 0, i32 1
  %6 = load ptr, ptr %session11, align 8
  %call12 = call noundef nonnull align 8 dereferenceable(68) ptr @_ZNK3zmq14session_base_t12get_endpointEv(ptr noundef nonnull align 8 dereferenceable(1624) %6)
  call void @_ZN3zmq13socket_base_t31event_handshake_failed_protocolERKNS_19endpoint_uri_pair_tEi(ptr noundef nonnull align 8 dereferenceable(1825) %call10, ptr noundef nonnull align 8 dereferenceable(68) %call12, i32 noundef 268435477)
  %call13 = call ptr @__errno_location() #10
  store i32 71, ptr %call13, align 4
  store i32 -1, ptr %retval, align 4
  br label %return

if.end14:                                         ; preds = %if.end
  %7 = load ptr, ptr %cmd_data_.addr, align 8
  %arrayidx = getelementptr inbounds i8, ptr %7, i64 5
  %8 = load i8, ptr %arrayidx, align 1
  %conv = zext i8 %8 to i64
  store i64 %conv, ptr %error_reason_len, align 8
  %9 = load i64, ptr %error_reason_len, align 8
  %10 = load i64, ptr %data_size_.addr, align 8
  %sub = sub i64 %10, 6
  %cmp15 = icmp ugt i64 %9, %sub
  br i1 %cmp15, label %if.then16, label %if.end22

if.then16:                                        ; preds = %if.end14
  %session17 = getelementptr inbounds %"class.zmq::mechanism_base_t", ptr %this1, i32 0, i32 1
  %11 = load ptr, ptr %session17, align 8
  %call18 = call noundef ptr @_ZNK3zmq14session_base_t10get_socketEv(ptr noundef nonnull align 8 dereferenceable(1624) %11)
  %session19 = getelementptr inbounds %"class.zmq::mechanism_base_t", ptr %this1, i32 0, i32 1
  %12 = load ptr, ptr %session19, align 8
  %call20 = call noundef nonnull align 8 dereferenceable(68) ptr @_ZNK3zmq14session_base_t12get_endpointEv(ptr noundef nonnull align 8 dereferenceable(1624) %12)
  call void @_ZN3zmq13socket_base_t31event_handshake_failed_protocolERKNS_19endpoint_uri_pair_tEi(ptr noundef nonnull align 8 dereferenceable(1825) %call18, ptr noundef nonnull align 8 dereferenceable(68) %call20, i32 noundef 268435477)
  %call21 = call ptr @__errno_location() #10
  store i32 71, ptr %call21, align 4
  store i32 -1, ptr %retval, align 4
  br label %return

if.end22:                                         ; preds = %if.end14
  %13 = load ptr, ptr %cmd_data_.addr, align 8
  %add.ptr = getelementptr inbounds i8, ptr %13, i64 6
  store ptr %add.ptr, ptr %error_reason, align 8
  %14 = load ptr, ptr %error_reason, align 8
  %15 = load i64, ptr %error_reason_len, align 8
  call void @_ZN3zmq16mechanism_base_t19handle_error_reasonEPKcm(ptr noundef nonnull align 8 dereferenceable(1496) %this1, ptr noundef %14, i64 noundef %15)
  %_state23 = getelementptr inbounds %"class.zmq::plain_client_t", ptr %this1, i32 0, i32 1
  store i32 4, ptr %_state23, align 8
  store i32 0, ptr %retval, align 4
  br label %return

return:                                           ; preds = %if.end22, %if.then16, %if.then8, %if.then
  %16 = load i32, ptr %retval, align 4
  ret i32 %16
}