; Function Attrs: mustprogress uwtable
define noundef i32 @_ZN3zmq14plain_client_t13process_errorEPKhm(ptr noundef nonnull align 8 dereferenceable(1504) %this, ptr noundef %cmd_data_, i64 noundef %data_size_) local_unnamed_addr #0 align 2 {
entry:
  %_state = getelementptr inbounds i8, ptr %this, i64 1496
  %0 = load i32, ptr %_state, align 8
  switch i32 %0, label %if.then [
    i32 1, label %if.end
    i32 3, label %if.end
  ]

if.then:                                          ; preds = %entry
  %session = getelementptr inbounds i8, ptr %this, i64 1488
  %1 = load ptr, ptr %session, align 8
  %call = tail call noundef ptr @_ZNK3zmq14session_base_t10get_socketEv(ptr noundef nonnull align 8 dereferenceable(1624) %1)
  %2 = load ptr, ptr %session, align 8
  %call5 = tail call noundef nonnull align 8 dereferenceable(68) ptr @_ZNK3zmq14session_base_t12get_endpointEv(ptr noundef nonnull align 8 dereferenceable(1624) %2)
  tail call void @_ZN3zmq13socket_base_t31event_handshake_failed_protocolERKNS_19endpoint_uri_pair_tEi(ptr noundef nonnull align 8 dereferenceable(1825) %call, ptr noundef nonnull align 8 dereferenceable(68) %call5, i32 noundef 268435457)
  %call6 = tail call ptr @__errno_location() #12
  store i32 71, ptr %call6, align 4
  br label %return

if.end:                                           ; preds = %entry, %entry
  %cmp7 = icmp ult i64 %data_size_, 6
  br i1 %cmp7, label %if.then8, label %if.end14

if.then8:                                         ; preds = %if.end
  %session9 = getelementptr inbounds i8, ptr %this, i64 1488
  %3 = load ptr, ptr %session9, align 8
  %call10 = tail call noundef ptr @_ZNK3zmq14session_base_t10get_socketEv(ptr noundef nonnull align 8 dereferenceable(1624) %3)
  %4 = load ptr, ptr %session9, align 8
  %call12 = tail call noundef nonnull align 8 dereferenceable(68) ptr @_ZNK3zmq14session_base_t12get_endpointEv(ptr noundef nonnull align 8 dereferenceable(1624) %4)
  tail call void @_ZN3zmq13socket_base_t31event_handshake_failed_protocolERKNS_19endpoint_uri_pair_tEi(ptr noundef nonnull align 8 dereferenceable(1825) %call10, ptr noundef nonnull align 8 dereferenceable(68) %call12, i32 noundef 268435477)
  %call13 = tail call ptr @__errno_location() #12
  store i32 71, ptr %call13, align 4
  br label %return

if.end14:                                         ; preds = %if.end
  %arrayidx = getelementptr inbounds i8, ptr %cmd_data_, i64 5
  %5 = load i8, ptr %arrayidx, align 1
  %conv = zext i8 %5 to i64
  %sub = add i64 %data_size_, -6
  %cmp15 = icmp ult i64 %sub, %conv
  br i1 %cmp15, label %if.then16, label %if.end22

if.then16:                                        ; preds = %if.end14
  %session17 = getelementptr inbounds i8, ptr %this, i64 1488
  %6 = load ptr, ptr %session17, align 8
  %call18 = tail call noundef ptr @_ZNK3zmq14session_base_t10get_socketEv(ptr noundef nonnull align 8 dereferenceable(1624) %6)
  %7 = load ptr, ptr %session17, align 8
  %call20 = tail call noundef nonnull align 8 dereferenceable(68) ptr @_ZNK3zmq14session_base_t12get_endpointEv(ptr noundef nonnull align 8 dereferenceable(1624) %7)
  tail call void @_ZN3zmq13socket_base_t31event_handshake_failed_protocolERKNS_19endpoint_uri_pair_tEi(ptr noundef nonnull align 8 dereferenceable(1825) %call18, ptr noundef nonnull align 8 dereferenceable(68) %call20, i32 noundef 268435477)
  %call21 = tail call ptr @__errno_location() #12
  store i32 71, ptr %call21, align 4
  br label %return

if.end22:                                         ; preds = %if.end14
  %add.ptr = getelementptr inbounds i8, ptr %cmd_data_, i64 6
  tail call void @_ZN3zmq16mechanism_base_t19handle_error_reasonEPKcm(ptr noundef nonnull align 8 dereferenceable(1496) %this, ptr noundef nonnull %add.ptr, i64 noundef %conv)
  store i32 4, ptr %_state, align 8
  br label %return

return:                                           ; preds = %if.end22, %if.then16, %if.then8, %if.then
  %retval.0 = phi i32 [ -1, %if.then ], [ -1, %if.then8 ], [ -1, %if.then16 ], [ 0, %if.end22 ]
  ret i32 %retval.0
}